target datalayout = "e-m:e-p270:32:32-p271:32:32-p272:64:64-i64:64-i128:128-f80:128-n8:16:32:64-S128"
target triple = "x86_64-pc-linux-gnu"

%"class.cv::SIFT_Impl" = type <{ %"class.cv::SIFT", i32, i32, double, double, double, i32, i8, [3 x i8] }>
%"class.cv::SIFT" = type { %"class.cv::Feature2D" }
%"class.cv::Feature2D" = type { %"class.cv::Algorithm" }
%"class.cv::Algorithm" = type { ptr }
%"class.cv::FileNode" = type { ptr, i64, i64 }

@.str.16 = private unnamed_addr constant [10 x i8] c"nfeatures\00", align 1
@.str.17 = private unnamed_addr constant [14 x i8] c"nOctaveLayers\00", align 1
@.str.18 = private unnamed_addr constant [18 x i8] c"contrastThreshold\00", align 1
@.str.19 = private unnamed_addr constant [14 x i8] c"edgeThreshold\00", align 1
@.str.20 = private unnamed_addr constant [6 x i8] c"sigma\00", align 1
@.str.21 = private unnamed_addr constant [15 x i8] c"descriptorType\00", align 1

; Function Attrs: inlinehint mustprogress uwtable
define internal void @_ZN2cvrsIdEEvRKNS_8FileNodeERT_(ptr noundef nonnull align 8 dereferenceable(24) %0, ptr noundef nonnull align 8 dereferenceable(8) %1) #11 {
  %3 = alloca ptr, align 8
  %4 = alloca ptr, align 8
  store ptr %0, ptr %3, align 8, !tbaa !234
  store ptr %1, ptr %4, align 8, !tbaa !110
  %5 = load ptr, ptr %3, align 8, !tbaa !234
  %6 = load ptr, ptr %4, align 8, !tbaa !110
  call void @_ZN2cv4readERKNS_8FileNodeERdd(ptr noundef nonnull align 8 dereferenceable(24) %5, ptr noundef nonnull align 8 dereferenceable(8) %6, double noundef 0.000000e+00)
  ret void
}

; Function Attrs: inlinehint mustprogress uwtable
define internal void @_ZN2cvrsIiEEvRKNS_8FileNodeERT_(ptr noundef nonnull align 8 dereferenceable(24) %0, ptr noundef nonnull align 4 dereferenceable(4) %1) #11 {
  %3 = alloca ptr, align 8
  %4 = alloca ptr, align 8
  store ptr %0, ptr %3, align 8, !tbaa !234
  store ptr %1, ptr %4, align 8, !tbaa !90
  %5 = load ptr, ptr %3, align 8, !tbaa !234
  %6 = load ptr, ptr %4, align 8, !tbaa !90
  call void @_ZN2cv4readERKNS_8FileNodeERii(ptr noundef nonnull align 8 dereferenceable(24) %5, ptr noundef nonnull align 4 dereferenceable(4) %6, i32 noundef 0)
  ret void
}

; Function Attrs: mustprogress uwtable
define hidden void @_ZN2cv9SIFT_Impl4readERKNS_8FileNodeE(ptr noundef nonnull align 8 dereferenceable(45) %0, ptr noundef nonnull align 8 dereferenceable(24) %1) unnamed_addr #4 align 2 {
  %3 = alloca ptr, align 8
  %4 = alloca ptr, align 8
  %5 = alloca %"class.cv::FileNode", align 8
  %6 = alloca %"class.cv::FileNode", align 8
  %7 = alloca %"class.cv::FileNode", align 8
  %8 = alloca %"class.cv::FileNode", align 8
  %9 = alloca %"class.cv::FileNode", align 8
  %10 = alloca %"class.cv::FileNode", align 8
  %11 = alloca %"class.cv::FileNode", align 8
  %12 = alloca %"class.cv::FileNode", align 8
  %13 = alloca %"class.cv::FileNode", align 8
  %14 = alloca %"class.cv::FileNode", align 8
  %15 = alloca %"class.cv::FileNode", align 8
  %16 = alloca %"class.cv::FileNode", align 8
  store ptr %0, ptr %3, align 8, !tbaa !126
  store ptr %1, ptr %4, align 8, !tbaa !234
  %17 = load ptr, ptr %3, align 8
  call void @llvm.lifetime.start.p0(i64 24, ptr %5) #3
  %18 = load ptr, ptr %4, align 8, !tbaa !234
  call void @_ZNK2cv8FileNodeixEPKc(ptr dead_on_unwind writable sret(%"class.cv::FileNode") align 8 %5, ptr noundef nonnull align 8 dereferenceable(24) %18, ptr noundef @.str.16)
  %19 = call noundef zeroext i1 @_ZNK2cv8FileNode5emptyEv(ptr noundef nonnull align 8 dereferenceable(24) %5)
  %20 = xor i1 %19, true
  call void @llvm.lifetime.end.p0(i64 24, ptr %5) #3
  br i1 %20, label %21, label %24

21:                                               ; preds = %2
  call void @llvm.lifetime.start.p0(i64 24, ptr %6) #3
  %22 = load ptr, ptr %4, align 8, !tbaa !234
  call void @_ZNK2cv8FileNodeixEPKc(ptr dead_on_unwind writable sret(%"class.cv::FileNode") align 8 %6, ptr noundef nonnull align 8 dereferenceable(24) %22, ptr noundef @.str.16)
  %23 = getelementptr inbounds nuw %"class.cv::SIFT_Impl", ptr %17, i32 0, i32 1
  call void @_ZN2cvrsIiEEvRKNS_8FileNodeERT_(ptr noundef nonnull align 8 dereferenceable(24) %6, ptr noundef nonnull align 4 dereferenceable(4) %23)
  call void @llvm.lifetime.end.p0(i64 24, ptr %6) #3
  br label %24

24:                                               ; preds = %21, %2
  call void @llvm.lifetime.start.p0(i64 24, ptr %7) #3
  %25 = load ptr, ptr %4, align 8, !tbaa !234
  call void @_ZNK2cv8FileNodeixEPKc(ptr dead_on_unwind writable sret(%"class.cv::FileNode") align 8 %7, ptr noundef nonnull align 8 dereferenceable(24) %25, ptr noundef @.str.17)
  %26 = call noundef zeroext i1 @_ZNK2cv8FileNode5emptyEv(ptr noundef nonnull align 8 dereferenceable(24) %7)
  %27 = xor i1 %26, true
  call void @llvm.lifetime.end.p0(i64 24, ptr %7) #3
  br i1 %27, label %28, label %31

28:                                               ; preds = %24
  call void @llvm.lifetime.start.p0(i64 24, ptr %8) #3
  %29 = load ptr, ptr %4, align 8, !tbaa !234
  call void @_ZNK2cv8FileNodeixEPKc(ptr dead_on_unwind writable sret(%"class.cv::FileNode") align 8 %8, ptr noundef nonnull align 8 dereferenceable(24) %29, ptr noundef @.str.17)
  %30 = getelementptr inbounds nuw %"class.cv::SIFT_Impl", ptr %17, i32 0, i32 2
  call void @_ZN2cvrsIiEEvRKNS_8FileNodeERT_(ptr noundef nonnull align 8 dereferenceable(24) %8, ptr noundef nonnull align 4 dereferenceable(4) %30)
  call void @llvm.lifetime.end.p0(i64 24, ptr %8) #3
  br label %31

31:                                               ; preds = %28, %24
  call void @llvm.lifetime.start.p0(i64 24, ptr %9) #3
  %32 = load ptr, ptr %4, align 8, !tbaa !234
  call void @_ZNK2cv8FileNodeixEPKc(ptr dead_on_unwind writable sret(%"class.cv::FileNode") align 8 %9, ptr noundef nonnull align 8 dereferenceable(24) %32, ptr noundef @.str.18)
  %33 = call noundef zeroext i1 @_ZNK2cv8FileNode5emptyEv(ptr noundef nonnull align 8 dereferenceable(24) %9)
  %34 = xor i1 %33, true
  call void @llvm.lifetime.end.p0(i64 24, ptr %9) #3
  br i1 %34, label %35, label %38

35:                                               ; preds = %31
  call void @llvm.lifetime.start.p0(i64 24, ptr %10) #3
  %36 = load ptr, ptr %4, align 8, !tbaa !234
  call void @_ZNK2cv8FileNodeixEPKc(ptr dead_on_unwind writable sret(%"class.cv::FileNode") align 8 %10, ptr noundef nonnull align 8 dereferenceable(24) %36, ptr noundef @.str.18)
  %37 = getelementptr inbounds nuw %"class.cv::SIFT_Impl", ptr %17, i32 0, i32 3
  call void @_ZN2cvrsIdEEvRKNS_8FileNodeERT_(ptr noundef nonnull align 8 dereferenceable(24) %10, ptr noundef nonnull align 8 dereferenceable(8) %37)
  call void @llvm.lifetime.end.p0(i64 24, ptr %10) #3
  br label %38

38:                                               ; preds = %35, %31
  call void @llvm.lifetime.start.p0(i64 24, ptr %11) #3
  %39 = load ptr, ptr %4, align 8, !tbaa !234
  call void @_ZNK2cv8FileNodeixEPKc(ptr dead_on_unwind writable sret(%"class.cv::FileNode") align 8 %11, ptr noundef nonnull align 8 dereferenceable(24) %39, ptr noundef @.str.19)
  %40 = call noundef zeroext i1 @_ZNK2cv8FileNode5emptyEv(ptr noundef nonnull align 8 dereferenceable(24) %11)
  %41 = xor i1 %40, true
  call void @llvm.lifetime.end.p0(i64 24, ptr %11) #3
  br i1 %41, label %42, label %45

42:                                               ; preds = %38
  call void @llvm.lifetime.start.p0(i64 24, ptr %12) #3
  %43 = load ptr, ptr %4, align 8, !tbaa !234
  call void @_ZNK2cv8FileNodeixEPKc(ptr dead_on_unwind writable sret(%"class.cv::FileNode") align 8 %12, ptr noundef nonnull align 8 dereferenceable(24) %43, ptr noundef @.str.19)
  %44 = getelementptr inbounds nuw %"class.cv::SIFT_Impl", ptr %17, i32 0, i32 4
  call void @_ZN2cvrsIdEEvRKNS_8FileNodeERT_(ptr noundef nonnull align 8 dereferenceable(24) %12, ptr noundef nonnull align 8 dereferenceable(8) %44)
  call void @llvm.lifetime.end.p0(i64 24, ptr %12) #3
  br label %45

45:                                               ; preds = %42, %38
  call void @llvm.lifetime.start.p0(i64 24, ptr %13) #3
  %46 = load ptr, ptr %4, align 8, !tbaa !234
  call void @_ZNK2cv8FileNodeixEPKc(ptr dead_on_unwind writable sret(%"class.cv::FileNode") align 8 %13, ptr noundef nonnull align 8 dereferenceable(24) %46, ptr noundef @.str.20)
  %47 = call noundef zeroext i1 @_ZNK2cv8FileNode5emptyEv(ptr noundef nonnull align 8 dereferenceable(24) %13)
  %48 = xor i1 %47, true
  call void @llvm.lifetime.end.p0(i64 24, ptr %13) #3
  br i1 %48, label %49, label %52

49:                                               ; preds = %45
  call void @llvm.lifetime.start.p0(i64 24, ptr %14) #3
  %50 = load ptr, ptr %4, align 8, !tbaa !234
  call void @_ZNK2cv8FileNodeixEPKc(ptr dead_on_unwind writable sret(%"class.cv::FileNode") align 8 %14, ptr noundef nonnull align 8 dereferenceable(24) %50, ptr noundef @.str.20)
  %51 = getelementptr inbounds nuw %"class.cv::SIFT_Impl", ptr %17, i32 0, i32 5
  call void @_ZN2cvrsIdEEvRKNS_8FileNodeERT_(ptr noundef nonnull align 8 dereferenceable(24) %14, ptr noundef nonnull align 8 dereferenceable(8) %51)
  call void @llvm.lifetime.end.p0(i64 24, ptr %14) #3
  br label %52

52:                                               ; preds = %49, %45
  call void @llvm.lifetime.start.p0(i64 24, ptr %15) #3
  %53 = load ptr, ptr %4, align 8, !tbaa !234
  call void @_ZNK2cv8FileNodeixEPKc(ptr dead_on_unwind writable sret(%"class.cv::FileNode") align 8 %15, ptr noundef nonnull align 8 dereferenceable(24) %53, ptr noundef @.str.21)
  %54 = call noundef zeroext i1 @_ZNK2cv8FileNode5emptyEv(ptr noundef nonnull align 8 dereferenceable(24) %15)
  %55 = xor i1 %54, true
  call void @llvm.lifetime.end.p0(i64 24, ptr %15) #3
  br i1 %55, label %56, label %59

56:                                               ; preds = %52
  call void @llvm.lifetime.start.p0(i64 24, ptr %16) #3
  %57 = load ptr, ptr %4, align 8, !tbaa !234
  call void @_ZNK2cv8FileNodeixEPKc(ptr dead_on_unwind writable sret(%"class.cv::FileNode") align 8 %16, ptr noundef nonnull align 8 dereferenceable(24) %57, ptr noundef @.str.21)
  %58 = getelementptr inbounds nuw %"class.cv::SIFT_Impl", ptr %17, i32 0, i32 6
  call void @_ZN2cvrsIiEEvRKNS_8FileNodeERT_(ptr noundef nonnull align 8 dereferenceable(24) %16, ptr noundef nonnull align 4 dereferenceable(4) %58)
  call void @llvm.lifetime.end.p0(i64 24, ptr %16) #3
  br label %59

59:                                               ; preds = %56, %52
  ret void
}