; Function Attrs: mustprogress uwtable
define hidden void @_ZN2cv9SIFT_Impl4readERKNS_8FileNodeE(ptr noundef nonnull align 8 dereferenceable(45) %0, ptr noundef nonnull align 8 dereferenceable(24) %1) unnamed_addr #8 align 2 {
  %3 = alloca %"class.cv::FileNode", align 8
  %4 = alloca %"class.cv::FileNode", align 8
  %5 = alloca %"class.cv::FileNode", align 8
  %6 = alloca %"class.cv::FileNode", align 8
  %7 = alloca %"class.cv::FileNode", align 8
  %8 = alloca %"class.cv::FileNode", align 8
  %9 = alloca %"class.cv::FileNode", align 8
  %10 = alloca %"class.cv::FileNode", align 8
  %11 = alloca %"class.cv::FileNode", align 8
  %12 = alloca %"class.cv::FileNode", align 8
  %13 = alloca %"class.cv::FileNode", align 8
  %14 = alloca %"class.cv::FileNode", align 8
  call void @llvm.lifetime.start.p0(i64 24, ptr nonnull %3) #27
  call void @_ZNK2cv8FileNodeixEPKc(ptr dead_on_unwind nonnull writable sret(%"class.cv::FileNode") align 8 %3, ptr noundef nonnull align 8 dereferenceable(24) %1, ptr noundef nonnull @.str.16)
  %15 = call noundef zeroext i1 @_ZNK2cv8FileNode5emptyEv(ptr noundef nonnull align 8 dereferenceable(24) %3)
  call void @llvm.lifetime.end.p0(i64 24, ptr nonnull %3) #27
  br i1 %15, label %18, label %16

16:                                               ; preds = %2
  call void @llvm.lifetime.start.p0(i64 24, ptr nonnull %4) #27
  call void @_ZNK2cv8FileNodeixEPKc(ptr dead_on_unwind nonnull writable sret(%"class.cv::FileNode") align 8 %4, ptr noundef nonnull align 8 dereferenceable(24) %1, ptr noundef nonnull @.str.16)
  %17 = getelementptr inbounds nuw i8, ptr %0, i64 8
  call void @_ZN2cv4readERKNS_8FileNodeERii(ptr noundef nonnull align 8 dereferenceable(24) %4, ptr noundef nonnull align 4 dereferenceable(4) %17, i32 noundef 0)
  call void @llvm.lifetime.end.p0(i64 24, ptr nonnull %4) #27
  br label %18

18:                                               ; preds = %16, %2
  call void @llvm.lifetime.start.p0(i64 24, ptr nonnull %5) #27
  call void @_ZNK2cv8FileNodeixEPKc(ptr dead_on_unwind nonnull writable sret(%"class.cv::FileNode") align 8 %5, ptr noundef nonnull align 8 dereferenceable(24) %1, ptr noundef nonnull @.str.17)
  %19 = call noundef zeroext i1 @_ZNK2cv8FileNode5emptyEv(ptr noundef nonnull align 8 dereferenceable(24) %5)
  call void @llvm.lifetime.end.p0(i64 24, ptr nonnull %5) #27
  br i1 %19, label %22, label %20

20:                                               ; preds = %18
  call void @llvm.lifetime.start.p0(i64 24, ptr nonnull %6) #27
  call void @_ZNK2cv8FileNodeixEPKc(ptr dead_on_unwind nonnull writable sret(%"class.cv::FileNode") align 8 %6, ptr noundef nonnull align 8 dereferenceable(24) %1, ptr noundef nonnull @.str.17)
  %21 = getelementptr inbounds nuw i8, ptr %0, i64 12
  call void @_ZN2cv4readERKNS_8FileNodeERii(ptr noundef nonnull align 8 dereferenceable(24) %6, ptr noundef nonnull align 4 dereferenceable(4) %21, i32 noundef 0)
  call void @llvm.lifetime.end.p0(i64 24, ptr nonnull %6) #27
  br label %22

22:                                               ; preds = %20, %18
  call void @llvm.lifetime.start.p0(i64 24, ptr nonnull %7) #27
  call void @_ZNK2cv8FileNodeixEPKc(ptr dead_on_unwind nonnull writable sret(%"class.cv::FileNode") align 8 %7, ptr noundef nonnull align 8 dereferenceable(24) %1, ptr noundef nonnull @.str.18)
  %23 = call noundef zeroext i1 @_ZNK2cv8FileNode5emptyEv(ptr noundef nonnull align 8 dereferenceable(24) %7)
  call void @llvm.lifetime.end.p0(i64 24, ptr nonnull %7) #27
  br i1 %23, label %26, label %24

24:                                               ; preds = %22
  call void @llvm.lifetime.start.p0(i64 24, ptr nonnull %8) #27
  call void @_ZNK2cv8FileNodeixEPKc(ptr dead_on_unwind nonnull writable sret(%"class.cv::FileNode") align 8 %8, ptr noundef nonnull align 8 dereferenceable(24) %1, ptr noundef nonnull @.str.18)
  %25 = getelementptr inbounds nuw i8, ptr %0, i64 16
  call void @_ZN2cv4readERKNS_8FileNodeERdd(ptr noundef nonnull align 8 dereferenceable(24) %8, ptr noundef nonnull align 8 dereferenceable(8) %25, double noundef 0.000000e+00)
  call void @llvm.lifetime.end.p0(i64 24, ptr nonnull %8) #27
  br label %26

26:                                               ; preds = %24, %22
  call void @llvm.lifetime.start.p0(i64 24, ptr nonnull %9) #27
  call void @_ZNK2cv8FileNodeixEPKc(ptr dead_on_unwind nonnull writable sret(%"class.cv::FileNode") align 8 %9, ptr noundef nonnull align 8 dereferenceable(24) %1, ptr noundef nonnull @.str.19)
  %27 = call noundef zeroext i1 @_ZNK2cv8FileNode5emptyEv(ptr noundef nonnull align 8 dereferenceable(24) %9)
  call void @llvm.lifetime.end.p0(i64 24, ptr nonnull %9) #27
  br i1 %27, label %30, label %28

28:                                               ; preds = %26
  call void @llvm.lifetime.start.p0(i64 24, ptr nonnull %10) #27
  call void @_ZNK2cv8FileNodeixEPKc(ptr dead_on_unwind nonnull writable sret(%"class.cv::FileNode") align 8 %10, ptr noundef nonnull align 8 dereferenceable(24) %1, ptr noundef nonnull @.str.19)
  %29 = getelementptr inbounds nuw i8, ptr %0, i64 24
  call void @_ZN2cv4readERKNS_8FileNodeERdd(ptr noundef nonnull align 8 dereferenceable(24) %10, ptr noundef nonnull align 8 dereferenceable(8) %29, double noundef 0.000000e+00)
  call void @llvm.lifetime.end.p0(i64 24, ptr nonnull %10) #27
  br label %30

30:                                               ; preds = %28, %26
  call void @llvm.lifetime.start.p0(i64 24, ptr nonnull %11) #27
  call void @_ZNK2cv8FileNodeixEPKc(ptr dead_on_unwind nonnull writable sret(%"class.cv::FileNode") align 8 %11, ptr noundef nonnull align 8 dereferenceable(24) %1, ptr noundef nonnull @.str.20)
  %31 = call noundef zeroext i1 @_ZNK2cv8FileNode5emptyEv(ptr noundef nonnull align 8 dereferenceable(24) %11)
  call void @llvm.lifetime.end.p0(i64 24, ptr nonnull %11) #27
  br i1 %31, label %34, label %32

32:                                               ; preds = %30
  call void @llvm.lifetime.start.p0(i64 24, ptr nonnull %12) #27
  call void @_ZNK2cv8FileNodeixEPKc(ptr dead_on_unwind nonnull writable sret(%"class.cv::FileNode") align 8 %12, ptr noundef nonnull align 8 dereferenceable(24) %1, ptr noundef nonnull @.str.20)
  %33 = getelementptr inbounds nuw i8, ptr %0, i64 32
  call void @_ZN2cv4readERKNS_8FileNodeERdd(ptr noundef nonnull align 8 dereferenceable(24) %12, ptr noundef nonnull align 8 dereferenceable(8) %33, double noundef 0.000000e+00)
  call void @llvm.lifetime.end.p0(i64 24, ptr nonnull %12) #27
  br label %34

34:                                               ; preds = %32, %30
  call void @llvm.lifetime.start.p0(i64 24, ptr nonnull %13) #27
  call void @_ZNK2cv8FileNodeixEPKc(ptr dead_on_unwind nonnull writable sret(%"class.cv::FileNode") align 8 %13, ptr noundef nonnull align 8 dereferenceable(24) %1, ptr noundef nonnull @.str.21)
  %35 = call noundef zeroext i1 @_ZNK2cv8FileNode5emptyEv(ptr noundef nonnull align 8 dereferenceable(24) %13)
  call void @llvm.lifetime.end.p0(i64 24, ptr nonnull %13) #27
  br i1 %35, label %38, label %36

36:                                               ; preds = %34
  call void @llvm.lifetime.start.p0(i64 24, ptr nonnull %14) #27
  call void @_ZNK2cv8FileNodeixEPKc(ptr dead_on_unwind nonnull writable sret(%"class.cv::FileNode") align 8 %14, ptr noundef nonnull align 8 dereferenceable(24) %1, ptr noundef nonnull @.str.21)
  %37 = getelementptr inbounds nuw i8, ptr %0, i64 40
  call void @_ZN2cv4readERKNS_8FileNodeERii(ptr noundef nonnull align 8 dereferenceable(24) %14, ptr noundef nonnull align 4 dereferenceable(4) %37, i32 noundef 0)
  call void @llvm.lifetime.end.p0(i64 24, ptr nonnull %14) #27
  br label %38

38:                                               ; preds = %36, %34
  ret void
}